(lp0
ccopy_reg
_reconstructor
p1
(cgeometry_msgs.msg._PoseStamped
PoseStamped
p2
c__builtin__
object
p3
Ntp4
Rp5
(lp6
g1
(cstd_msgs.msg._Header
Header
p7
g3
Ntp8
Rp9
(lp10
I0
aL0L
aS'linear_actuator_link'
p11
abag1
(cgeometry_msgs.msg._Pose
Pose
p12
g3
Ntp13
Rp14
(lp15
g1
(cgeometry_msgs.msg._Point
Point
p16
g3
Ntp17
Rp18
(lp19
F0.39720979189041944
aF-0.1518245725396112
aF0.4465286166354394
abag1
(cgeometry_msgs.msg._Quaternion
Quaternion
p20
g3
Ntp21
Rp22
(lp23
F0.47295122739307194
aF0.5637598000948144
aF0.4979597421407929
aF0.4588334332974401
abababag1
(g2
g3
Ntp24
Rp25
(lp26
g1
(g7
g3
Ntp27
Rp28
(lp29
I1
aL446683059L
aS'linear_actuator_link'
p30
abag1
(g12
g3
Ntp31
Rp32
(lp33
g1
(g16
g3
Ntp34
Rp35
(lp36
F0.34668482118026317
aF-0.15302846583581556
aF0.4888650517235371
abag1
(g20
g3
Ntp37
Rp38
(lp39
F0.41395370823006783
aF0.5223055093896041
aF0.5822311331078034
aF0.4656674671306181
abababag1
(g2
g3
Ntp40
Rp41
(lp42
g1
(g7
g3
Ntp43
Rp44
(lp45
I2
aL684640713L
aS'linear_actuator_link'
p46
abag1
(g12
g3
Ntp47
Rp48
(lp49
g1
(g16
g3
Ntp50
Rp51
(lp52
F0.29164126944967256
aF-0.1582056279855143
aF0.5238000032722727
abag1
(g20
g3
Ntp53
Rp54
(lp55
F0.34915779897148014
aF0.475055116818032
aF0.6622175741005095
aF0.46247092011804763
abababag1
(g2
g3
Ntp56
Rp57
(lp58
g1
(g7
g3
Ntp59
Rp60
(lp61
I3
aL922598367L
aS'linear_actuator_link'
p62
abag1
(g12
g3
Ntp63
Rp64
(lp65
g1
(g16
g3
Ntp66
Rp67
(lp68
F0.23417782202285387
aF-0.1684060122620794
aF0.5508323943200675
abag1
(g20
g3
Ntp69
Rp70
(lp71
F0.28032233572329773
aF0.4221936861084217
aF0.7364376916086943
aF0.448142171506851
abababag1
(g2
g3
Ntp72
Rp73
(lp74
g1
(g7
g3
Ntp75
Rp76
(lp77
I4
aL1160556021L
aS'linear_actuator_link'
p78
abag1
(g12
g3
Ntp79
Rp80
(lp81
g1
(g16
g3
Ntp82
Rp83
(lp84
F0.17662977978107125
aF-0.1844648523264226
aF0.5698743626703862
abag1
(g20
g3
Ntp85
Rp86
(lp87
F0.20946324403422575
aF0.3640616710858304
aF0.8034629789532033
aF0.42193778036162577
abababag1
(g2
g3
Ntp88
Rp89
(lp90
g1
(g7
g3
Ntp91
Rp92
(lp93
I5
aL1398513676L
aS'linear_actuator_link'
p94
abag1
(g12
g3
Ntp95
Rp96
(lp97
g1
(g16
g3
Ntp98
Rp99
(lp100
F0.12145946854527218
aF-0.20690473374527493
aF0.5812462701596899
abag1
(g20
g3
Ntp101
Rp102
(lp103
F0.13877715883418346
aF0.30115272773957835
aF0.8619496025125293
aF0.38352420717526536
abababag1
(g2
g3
Ntp104
Rp105
(lp106
g1
(g7
g3
Ntp107
Rp108
(lp109
I6
aL1636471330L
aS'linear_actuator_link'
p110
abag1
(g12
g3
Ntp111
Rp112
(lp113
g1
(g16
g3
Ntp114
Rp115
(lp116
F0.07113338864260532
aF-0.23585339576049077
aF0.5856393178912866
abag1
(g20
g3
Ntp117
Rp118
(lp119
F0.070554790224551
aF0.23410706838536202
aF0.910669155273569
aF0.33301290026319613
abababag1
(g2
g3
Ntp120
Rp121
(lp122
g1
(g7
g3
Ntp123
Rp124
(lp125
I7
aL1874428984L
aS'linear_actuator_link'
p126
abag1
(g12
g3
Ntp127
Rp128
(lp129
g1
(g16
g3
Ntp130
Rp131
(lp132
F0.02799331394807003
aF-0.2709861594870799
aF0.5840486796560416
abag1
(g20
g3
Ntp133
Rp134
(lp135
F0.0070876753873243045
aF0.16370045714326695
aF0.9485375554664721
aF0.2709768090785235
abababag1
(g2
g3
Ntp136
Rp137
(lp138
g1
(g7
g3
Ntp139
Rp140
(lp141
I8
aL2112386638L
aS'linear_actuator_link'
p142
abag1
(g12
g3
Ntp143
Rp144
(lp145
g1
(g16
g3
Ntp146
Rp147
(lp148
F-0.0058707940570583705
aF-0.31150011306404685
aF0.577682902622709
abag1
(g20
g3
Ntp149
Rp150
(lp151
F-0.049427689721742565
aF0.09082907287947281
aF0.9746413182216888
aF0.19844718144563117
abababag1
(g2
g3
Ntp152
Rp153
(lp154
g1
(g7
g3
Ntp155
Rp156
(lp157
I9
aL2350344292L
aS'linear_actuator_link'
p158
abag1
(g12
g3
Ntp159
Rp160
(lp161
g1
(g16
g3
Ntp162
Rp163
(lp164
F-0.028738068613116202
aF-0.3561246363141524
aF0.5678576271351246
abag1
(g20
g3
Ntp165
Rp166
(lp167
F-0.09698416458971057
aF0.016490588189912548
aF0.9882604801118983
aF0.11689035789570915
abababag1
(g2
g3
Ntp168
Rp169
(lp170
g1
(g7
g3
Ntp171
Rp172
(lp173
I10
aL2588301947L
aS'linear_actuator_link'
p174
abag1
(g12
g3
Ntp175
Rp176
(lp177
g1
(g16
g3
Ntp178
Rp179
(lp180
F-0.039356656642309334
aF-0.40316974708372544
aF0.5558832121578092
abag1
(g20
g3
Ntp181
Rp182
(lp183
F-0.1338525520111815
aF-0.058238072651488254
aF0.9888875290825331
aF0.028165156469941374
abababag1
(g2
g3
Ntp184
Rp185
(lp186
g1
(g7
g3
Ntp187
Rp188
(lp189
I11
aL2826259601L
aS'linear_actuator_link'
p190
abag1
(g12
g3
Ntp191
Rp192
(lp193
g1
(g16
g3
Ntp194
Rp195
(lp196
F-0.037019673832159816
aF-0.4506103884570338
aF0.5429564625694525
abag1
(g20
g3
Ntp197
Rp198
(lp199
F-0.1586604739836393
aF-0.13222573100758545
aF0.9762417839974399
aF-0.06553769321766208
abababag1
(g2
g3
Ntp200
Rp201
(lp202
g1
(g7
g3
Ntp203
Rp204
(lp205
I12
aL3064217255L
aS'linear_actuator_link'
p206
abag1
(g12
g3
Ntp207
Rp208
(lp209
g1
(g16
g3
Ntp210
Rp211
(lp212
F-0.021612024519378603
aF-0.4962014716762428
aF0.5300662749427258
abag1
(g20
g3
Ntp213
Rp214
(lp215
F-0.1704579150041864
aF-0.2043140524545894
aF0.9502787766286233
aF-0.1617717956604798
abababag1
(g2
g3
Ntp216
Rp217
(lp218
g1
(g7
g3
Ntp219
Rp220
(lp221
I13
aL3302174909L
aS'linear_actuator_link'
p222
abag1
(g12
g3
Ntp223
Rp224
(lp225
g1
(g16
g3
Ntp226
Rp227
(lp228
F0.006378773246700276
aF-0.5376148365331972
aF0.5179138672805192
abag1
(g20
g3
Ntp229
Rp230
(lp231
F-0.16876625656659322
aF-0.2733460740500684
aF0.9111942317715662
aF-0.25792430368644764
abababag1
(g2
g3
Ntp232
Rp233
(lp234
g1
(g7
g3
Ntp235
Rp236
(lp237
I14
aL3540132564L
aS'linear_actuator_link'
p238
abag1
(g12
g3
Ntp239
Rp240
(lp241
g1
(g16
g3
Ntp242
Rp243
(lp244
F0.04586813821847879
aF-0.5725921052516593
aF0.5069008229234695
abag1
(g20
g3
Ntp245
Rp246
(lp247
F-0.1536088710499324
aF-0.338195065805036
aF0.8594229053945767
aF-0.3513127977786138
abababag1
(g2
g3
Ntp248
Rp249
(lp250
g1
(g7
g3
Ntp251
Rp252
(lp253
I15
aL3778090218L
aS'linear_actuator_link'
p254
abag1
(g12
g3
Ntp255
Rp256
(lp257
g1
(g16
g3
Ntp258
Rp259
(lp260
F0.09524776867882034
aF-0.5990908950546845
aF0.4970712445135639
abag1
(g20
g3
Ntp261
Rp262
(lp263
F-0.12552047291994353
aF-0.3977937243278442
aF0.7956311790865315
aF-0.4392900984869937
abababag1
(g2
g3
Ntp264
Rp265
(lp266
g1
(g7
g3
Ntp267
Rp268
(lp269
I16
aL4016047872L
aS'linear_actuator_link'
p270
abag1
(g12
g3
Ntp271
Rp272
(lp273
g1
(g16
g3
Ntp274
Rp275
(lp276
F0.15245419564816654
aF-0.6154266747818837
aF0.48816481858860516
abag1
(g20
g3
Ntp277
Rp278
(lp279
F0.08553594723732391
aF0.4511618092020027
aF-0.720704809347472
aF0.5193468989328935
abababag1
(g2
g3
Ntp280
Rp281
(lp282
g1
(g7
g3
Ntp283
Rp284
(lp285
I17
aL4254005526L
aS'linear_actuator_link'
p286
abag1
(g12
g3
Ntp287
Rp288
(lp289
g1
(g16
g3
Ntp290
Rp291
(lp292
F0.21507977714320398
aF-0.6203882490637226
aF0.47966084423747035
abag1
(g20
g3
Ntp293
Rp294
(lp295
F0.03515773897014937
aF0.4974322314039727
aF-0.6357311702622775
aF0.5892121754579811
abababag1
(g2
g3
Ntp296
Rp297
(lp298
g1
(g7
g3
Ntp299
Rp300
(lp301
I18
aL4491963181L
aS'linear_actuator_link'
p302
abag1
(g12
g3
Ntp303
Rp304
(lp305
g1
(g16
g3
Ntp306
Rp307
(lp308
F0.28049879248353765
aF-0.6133216214806625
aF0.47085458580503614
abag1
(g20
g3
Ntp309
Rp310
(lp311
F-0.023696735539734462
aF0.5358745149910799
aF-0.5419767007664926
aF0.6469453027374902
abababag1
(g2
g3
Ntp312
Rp313
(lp314
g1
(g7
g3
Ntp315
Rp316
(lp317
I19
aL4729920835L
aS'linear_actuator_link'
p318
abag1
(g12
g3
Ntp319
Rp320
(lp321
g1
(g16
g3
Ntp322
Rp323
(lp324
F0.3460004850379219
aF-0.5941758025083757
aF0.4609585636848761
abag1
(g20
g3
Ntp325
Rp326
(lp327
F-0.08876545553403845
aF0.5659149668191367
aF-0.44086025060669115
aF0.6910160516724164
abababag1
(g2
g3
Ntp328
Rp329
(lp330
g1
(g7
g3
Ntp331
Rp332
(lp333
I20
aL4967878489L
aS'linear_actuator_link'
p334
abag1
(g12
g3
Ntp335
Rp336
(lp337
g1
(g16
g3
Ntp338
Rp339
(lp340
F0.40894436168933224
aF-0.5635000663720838
aF0.4491697603125058
abag1
(g20
g3
Ntp341
Rp342
(lp343
F-0.1575291471615174
aF0.5871530788261601
aF-0.33392158830905777
aF0.7203694903871779
abababag1
(g2
g3
Ntp344
Rp345
(lp346
g1
(g7
g3
Ntp347
Rp348
(lp349
I21
aL5205836143L
aS'linear_actuator_link'
p350
abag1
(g12
g3
Ntp351
Rp352
(lp353
g1
(g16
g3
Ntp354
Rp355
(lp356
F0.4668701686699466
aF-0.5224097362893573
aF0.43481685279384275
abag1
(g20
g3
Ntp357
Rp358
(lp359
F-0.22730730617865458
aF0.599373264979175
aF-0.2227891826392105
aF0.7344712777807991
abababag1
(g2
g3
Ntp360
Rp361
(lp362
g1
(g7
g3
Ntp363
Rp364
(lp365
I22
aL5443793797L
aS'linear_actuator_link'
p366
abag1
(g12
g3
Ntp367
Rp368
(lp369
g1
(g16
g3
Ntp370
Rp371
(lp372
F0.5176335427182932
aF-0.47250144331551974
aF0.41741250944195873
abag1
(g20
g3
Ntp373
Rp374
(lp375
F-0.2953654006478944
aF0.6025520872549556
aF-0.10914365751928788
aF0.7333334332131038
abababag1
(g2
g3
Ntp376
Rp377
(lp378
g1
(g7
g3
Ntp379
Rp380
(lp381
I23
aL5681751452L
aS'linear_actuator_link'
p382
abag1
(g12
g3
Ntp383
Rp384
(lp385
g1
(g16
g3
Ntp386
Rp387
(lp388
F0.5595011521444098
aF-0.4157415404587399
aF0.3967264503781551
abag1
(g20
g3
Ntp389
Rp390
(lp391
F-0.35902401238895865
aF0.5968602604488024
aF0.0053189323883972885
aF0.7175174541315132
abababag1
(g2
g3
Ntp392
Rp393
(lp394
g1
(g7
g3
Ntp395
Rp396
(lp397
I24
aL5919709106L
aS'linear_actuator_link'
p398
abag1
(g12
g3
Ntp399
Rp400
(lp401
g1
(g16
g3
Ntp402
Rp403
(lp404
F0.5912235544041069
aF-0.35433044413091097
aF0.37282352410842123
abag1
(g20
g3
Ntp405
Rp406
(lp407
F-0.4157672837041871
aF0.582659493053901
aF0.1189243526252559
aF0.688115164277083
abababag1
(g2
g3
Ntp408
Rp409
(lp410
g1
(g7
g3
Ntp411
Rp412
(lp413
I25
aL6157666760L
aS'linear_actuator_link'
p414
abag1
(g12
g3
Ntp415
Rp416
(lp417
g1
(g16
g3
Ntp418
Rp419
(lp420
F0.61207813770483
aF-0.2905552380566767
aF0.3460715708941595
abag1
(g20
g3
Ntp421
Rp422
(lp423
F-0.46334576755168977
aF0.5604941475883477
aF0.23005681019810637
aF0.6467077193699017
abababag1
(g2
g3
Ntp424
Rp425
(lp426
g1
(g7
g3
Ntp427
Rp428
(lp429
I26
aL6395624414L
aS'linear_actuator_link'
p430
abag1
(g12
g3
Ntp431
Rp432
(lp433
g1
(g16
g3
Ntp434
Rp435
(lp436
F0.6218804861539142
aF-0.22664251866293011
aF0.31711858228630563
abag1
(g20
g3
Ntp437
Rp438
(lp439
F-0.49986929460843105
aF0.5310778825355964
aF0.3371940060431675
aF0.5953042694939602
abababag1
(g2
g3
Ntp440
Rp441
(lp442
g1
(g7
g3
Ntp443
Rp444
(lp445
I27
aL6633582069L
aS'linear_actuator_link'
p446
abag1
(g12
g3
Ntp447
Rp448
(lp449
g1
(g16
g3
Ntp450
Rp451
(lp452
F0.6209645985840776
aF-0.1646231417774508
aF0.2868416776789857
abag1
(g20
g3
Ntp453
Rp454
(lp455
F-0.5238858540504667
aF0.4952755819224723
aF0.4389397136936067
aF0.5362626573049293
abababag1
(g2
g3
Ntp456
Rp457
(lp458
g1
(g7
g3
Ntp459
Rp460
(lp461
I28
aL7080265128L
aS'linear_actuator_link'
p462
abag1
(g12
g3
Ntp463
Rp464
(lp465
g1
(g16
g3
Ntp466
Rp467
(lp468
F0.6101344056320951
aF-0.1062191872208246
aF0.2562731478411544
abag1
(g20
g3
Ntp469
Rp470
(lp471
F0.5344430436247647
aF-0.4540810157273233
aF-0.5340530382029562
aF-0.4721953162234164
abababa.