(lp0
ccopy_reg
_reconstructor
p1
(cgeometry_msgs.msg._PoseStamped
PoseStamped
p2
c__builtin__
object
p3
Ntp4
Rp5
(lp6
g1
(cstd_msgs.msg._Header
Header
p7
g3
Ntp8
Rp9
(lp10
I0
aF0.0
aS'linear_actuator_link'
p11
abag1
(cgeometry_msgs.msg._Pose
Pose
p12
g3
Ntp13
Rp14
(lp15
g1
(cgeometry_msgs.msg._Point
Point
p16
g3
Ntp17
Rp18
(lp19
F0.3975320166919817
aF-0.14933046267632025
aF0.44477069005588166
abag1
(cgeometry_msgs.msg._Quaternion
Quaternion
p20
g3
Ntp21
Rp22
(lp23
F0.4719243529490936
aF0.5666608486130756
aF0.4952251669883256
aF0.4592765198919641
abababag1
(g2
g3
Ntp24
Rp25
(lp26
g1
(g7
g3
Ntp27
Rp28
(lp29
I1
aF0.449177002
aS'linear_actuator_link'
p30
abag1
(g12
g3
Ntp31
Rp32
(lp33
g1
(g16
g3
Ntp34
Rp35
(lp36
F0.3383677638197018
aF-0.14606746273952903
aF0.4612996675629779
abag1
(g20
g3
Ntp37
Rp38
(lp39
F0.38359553465167967
aF0.5463316698447964
aF0.5785458281341009
aF0.46867995163919246
abababag1
(g2
g3
Ntp40
Rp41
(lp42
g1
(g7
g3
Ntp43
Rp44
(lp45
I2
aF0.634859982
aS'linear_actuator_link'
p46
abag1
(g12
g3
Ntp47
Rp48
(lp49
g1
(g16
g3
Ntp50
Rp51
(lp52
F0.2862670727071691
aF-0.15165807670778217
aF0.4977828318873285
abag1
(g20
g3
Ntp53
Rp54
(lp55
F0.3209395363660699
aF0.4969295025398702
aF0.6585903021181057
aF0.46509966400610503
abababag1
(g2
g3
Ntp56
Rp57
(lp58
g1
(g7
g3
Ntp59
Rp60
(lp61
I3
aF0.784036984
aS'linear_actuator_link'
p62
abag1
(g12
g3
Ntp63
Rp64
(lp65
g1
(g16
g3
Ntp66
Rp67
(lp68
F0.23127041957518515
aF-0.16211646523058656
aF0.5266873584751306
abag1
(g20
g3
Ntp69
Rp70
(lp71
F0.25411456415923367
aF0.4419238344213162
aF0.7329592109209393
aF0.4504441230371177
abababag1
(g2
g3
Ntp72
Rp73
(lp74
g1
(g7
g3
Ntp75
Rp76
(lp77
I4
aF0.933213986
aS'linear_actuator_link'
p78
abag1
(g12
g3
Ntp79
Rp80
(lp81
g1
(g16
g3
Ntp82
Rp83
(lp84
F0.17567967791300945
aF-0.1782885048975768
aF0.5478247582892259
abag1
(g20
g3
Ntp85
Rp86
(lp87
F0.18514339819677425
aF0.38168244816432817
aF0.8001988080104042
aF0.4239366680604122
abababag1
(g2
g3
Ntp88
Rp89
(lp90
g1
(g7
g3
Ntp91
Rp92
(lp93
I5
aF1.082390989
aS'linear_actuator_link'
p94
abag1
(g12
g3
Ntp95
Rp96
(lp97
g1
(g16
g3
Ntp98
Rp99
(lp100
F0.12194939124682744
aF-0.20072469580231783
aF0.5614180707138494
abag1
(g20
g3
Ntp101
Rp102
(lp103
F0.11623594298347592
aF0.31672550722962606
aF0.8589421980194104
aF0.38521741794791975
abababag1
(g2
g3
Ntp104
Rp105
(lp106
g1
(g7
g3
Ntp107
Rp108
(lp109
I6
aF1.231567991
aS'linear_actuator_link'
p110
abag1
(g12
g3
Ntp111
Rp112
(lp113
g1
(g16
g3
Ntp114
Rp115
(lp116
F0.07256312422076425
aF-0.2295935767953367
aF0.5680705996730342
abag1
(g20
g3
Ntp117
Rp118
(lp119
F0.0497005461959257
aF0.24771824434105402
aF0.9079405462175302
aF0.3343792632066552
abababag1
(g2
g3
Ntp120
Rp121
(lp122
g1
(g7
g3
Ntp123
Rp124
(lp125
I7
aF1.380744993
aS'linear_actuator_link'
p126
abag1
(g12
g3
Ntp127
Rp128
(lp129
g1
(g16
g3
Ntp130
Rp131
(lp132
F0.029902260189392932
aF-0.26461870895454725
aF0.568703629460626
abag1
(g20
g3
Ntp133
Rp134
(lp135
F-0.012151384244798348
aF0.17545931338762932
aF0.9460923135225119
aF0.27198475600683575
abababag1
(g2
g3
Ntp136
Rp137
(lp138
g1
(g7
g3
Ntp139
Rp140
(lp141
I8
aF1.529921995
aS'linear_actuator_link'
p142
abag1
(g12
g3
Ntp143
Rp144
(lp145
g1
(g16
g3
Ntp146
Rp147
(lp148
F-0.0038846869783042137
aF-0.30504697354596494
aF0.5644685825986544
abag1
(g20
g3
Ntp149
Rp150
(lp151
F-0.06710334834223725
aF0.10086505094746948
aF0.9724697421228989
aF0.19906276094249037
abababag1
(g2
g3
Ntp152
Rp153
(lp154
g1
(g7
g3
Ntp155
Rp156
(lp157
I9
aF1.679098997
aS'linear_actuator_link'
p158
abag1
(g12
g3
Ntp159
Rp160
(lp161
g1
(g16
g3
Ntp162
Rp163
(lp164
F-0.027003970127822158
aF-0.3496534034439823
aF0.5566415925523693
abag1
(g20
g3
Ntp165
Rp166
(lp167
F-0.11313001652228229
aF0.02495001485013152
aF0.9863418726052612
aF0.11708461242278223
abababag1
(g2
g3
Ntp168
Rp169
(lp170
g1
(g7
g3
Ntp171
Rp172
(lp173
I10
aF1.8282759990000002
aS'linear_actuator_link'
p174
abag1
(g12
g3
Ntp175
Rp176
(lp177
g1
(g16
g3
Ntp178
Rp179
(lp180
F-0.038121804564678174
aF-0.3967846182791136
aF0.5465102019634074
abag1
(g20
g3
Ntp181
Rp182
(lp183
F-0.14848750946990605
aF-0.05119572026123262
aF0.987193449827694
aF0.027920429360138235
abababag1
(g2
g3
Ntp184
Rp185
(lp186
g1
(g7
g3
Ntp187
Rp188
(lp189
I11
aF1.977453001
aS'linear_actuator_link'
p190
abag1
(g12
g3
Ntp191
Rp192
(lp193
g1
(g16
g3
Ntp194
Rp195
(lp196
F-0.03644587599250643
aF-0.44443946106392007
aF0.5352626836265264
abag1
(g20
g3
Ntp197
Rp198
(lp199
F-0.17179362178375712
aF-0.12643192988167024
aF0.9747391699135096
aF-0.0662228756332589
abababag1
(g2
g3
Ntp200
Rp201
(lp202
g1
(g7
g3
Ntp203
Rp204
(lp205
I12
aF2.126630004
aS'linear_actuator_link'
p206
abag1
(g12
g3
Ntp207
Rp208
(lp209
g1
(g16
g3
Ntp210
Rp211
(lp212
F-0.02177759795601325
aF-0.49038197304160686
aF0.5238902347762433
abag1
(g20
g3
Ntp213
Rp214
(lp215
F-0.18209430177768327
aF-0.19959560316715005
aF0.9489328323585529
aF-0.16287952642494477
abababag1
(g2
g3
Ntp216
Rp217
(lp218
g1
(g7
g3
Ntp219
Rp220
(lp221
I13
aF2.275807006
aS'linear_actuator_link'
p222
abag1
(g12
g3
Ntp223
Rp224
(lp225
g1
(g16
g3
Ntp226
Rp227
(lp228
F0.005468616428366768
aF-0.5322787334692409
aF0.5131110382305906
abag1
(g20
g3
Ntp229
Rp230
(lp231
F-0.17891325269275093
aF-0.2695295693550665
aF0.9099710865565119
aF-0.2594156527377121
abababag1
(g2
g3
Ntp232
Rp233
(lp234
g1
(g7
g3
Ntp235
Rp236
(lp237
I14
aF2.424984008
aS'linear_actuator_link'
p238
abag1
(g12
g3
Ntp239
Rp240
(lp241
g1
(g16
g3
Ntp242
Rp243
(lp244
F0.04428069820189942
aF-0.5678501414295624
aF0.503323041664038
abag1
(g20
g3
Ntp245
Rp246
(lp247
F-0.1622822177878963
aF-0.33511160559378744
aF0.858291597825719
aF-0.35312919263064335
abababag1
(g2
g3
Ntp248
Rp249
(lp250
g1
(g7
g3
Ntp251
Rp252
(lp253
I15
aF2.57416101
aS'linear_actuator_link'
p254
abag1
(g12
g3
Ntp255
Rp256
(lp257
g1
(g16
g3
Ntp258
Rp259
(lp260
F0.09309827491567305
aF-0.5950236757490455
aF0.49458949308710753
abag1
(g20
g3
Ntp261
Rp262
(lp263
F-0.1327503238763498
aF-0.39528321843956993
aF0.7945656007021811
aF-0.4413547721635757
abababag1
(g2
g3
Ntp264
Rp265
(lp266
g1
(g7
g3
Ntp267
Rp268
(lp269
I16
aF2.723338012
aS'linear_actuator_link'
p270
abag1
(g12
g3
Ntp271
Rp272
(lp273
g1
(g16
g3
Ntp274
Rp275
(lp276
F0.14989321421283483
aF-0.6120766984805514
aF0.48665806801622047
abag1
(g20
g3
Ntp277
Rp278
(lp279
F0.09137175018370625
aF0.44907728764303273
aF-0.7196849530336406
aF0.5215691338341544
abababag1
(g2
g3
Ntp280
Rp281
(lp282
g1
(g7
g3
Ntp283
Rp284
(lp285
I17
aF2.872515014
aS'linear_actuator_link'
p286
abag1
(g12
g3
Ntp287
Rp288
(lp289
g1
(g16
g3
Ntp290
Rp291
(lp292
F0.2122765125537612
aF-0.6177570260827094
aF0.47901115174486053
abag1
(g20
g3
Ntp293
Rp294
(lp295
F0.03967192342332771
aF0.4956437802500131
aF-0.6347439493117005
aF0.5914926038451841
abababag1
(g2
g3
Ntp296
Rp297
(lp298
g1
(g7
g3
Ntp299
Rp300
(lp301
I18
aF3.021692016
aS'linear_actuator_link'
p302
abag1
(g12
g3
Ntp303
Rp304
(lp305
g1
(g16
g3
Ntp306
Rp307
(lp308
F0.27762497918321716
aF-0.6113712301675001
aF0.4709418243611916
abag1
(g20
g3
Ntp309
Rp310
(lp311
F-0.02040662492295992
aF0.5342727852528311
aF-0.5410162917229265
aF0.6491822029968235
abababag1
(g2
g3
Ntp312
Rp313
(lp314
g1
(g7
g3
Ntp315
Rp316
(lp317
I19
aF3.170869019
aS'linear_actuator_link'
p318
abag1
(g12
g3
Ntp319
Rp320
(lp321
g1
(g16
g3
Ntp322
Rp323
(lp324
F0.3432199061742184
aF-0.5928332918022341
aF0.4616476353990575
abag1
(g20
g3
Ntp325
Rp326
(lp327
F-0.08657670796664273
aF0.5644141831630337
aF-0.43992774867282636
aF0.6931123137195895
abababag1
(g2
g3
Ntp328
Rp329
(lp330
g1
(g7
g3
Ntp331
Rp332
(lp333
I20
aF3.320046021
aS'linear_actuator_link'
p334
abag1
(g12
g3
Ntp335
Rp336
(lp337
g1
(g16
g3
Ntp338
Rp339
(lp340
F0.40638918819342207
aF-0.5626695757363877
aF0.4503325908735152
abag1
(g20
g3
Ntp341
Rp342
(lp343
F-0.15629439258513092
aF0.5856933494137256
aF-0.3330251493151768
aF0.7222393046785677
abababag1
(g2
g3
Ntp344
Rp345
(lp346
g1
(g7
g3
Ntp347
Rp348
(lp349
I21
aF3.469223023
aS'linear_actuator_link'
p350
abag1
(g12
g3
Ntp351
Rp352
(lp353
g1
(g16
g3
Ntp354
Rp355
(lp356
F0.46464420951941765
aF-0.5219798039410547
aF0.4363070684435759
abag1
(g20
g3
Ntp357
Rp358
(lp359
F-0.22685882174027425
aF0.5979223933143534
aF-0.22194246547634197
aF0.736047164650563
abababag1
(g2
g3
Ntp360
Rp361
(lp362
g1
(g7
g3
Ntp363
Rp364
(lp365
I22
aF3.618400025
aS'linear_actuator_link'
p366
abag1
(g12
g3
Ntp367
Rp368
(lp369
g1
(g16
g3
Ntp370
Rp371
(lp372
F0.5158032577976868
aF-0.4723574466277975
aF0.4190756903101951
abag1
(g20
g3
Ntp373
Rp374
(lp375
F-0.2955198508352824
aF0.6011065527001216
aF-0.10836481626934694
aF0.73457198194471
abababag1
(g2
g3
Ntp376
Rp377
(lp378
g1
(g7
g3
Ntp379
Rp380
(lp381
I23
aF3.7675770269999997
aS'linear_actuator_link'
p382
abag1
(g12
g3
Ntp383
Rp384
(lp385
g1
(g16
g3
Ntp386
Rp387
(lp388
F0.5580942186666669
aF-0.4157763669952309
aF0.3984044794369719
abag1
(g20
g3
Ntp389
Rp390
(lp391
F-0.3595890192607019
aF0.5954454952889183
aF0.006008706897927379
aF0.7184039913646612
abababag1
(g2
g3
Ntp392
Rp393
(lp394
g1
(g7
g3
Ntp395
Rp396
(lp397
I24
aF3.916754029
aS'linear_actuator_link'
p398
abag1
(g12
g3
Ntp399
Rp400
(lp401
g1
(g16
g3
Ntp402
Rp403
(lp404
F0.5902307778307783
aF-0.3544533389142082
aF0.3743607661628856
abag1
(g20
g3
Ntp405
Rp406
(lp407
F-0.4165491891636665
aF0.5813294175317799
aF0.1195024582811571
aF0.6886668597979823
abababag1
(g2
g3
Ntp408
Rp409
(lp410
g1
(g7
g3
Ntp411
Rp412
(lp413
I25
aF4.065931032
aS'linear_actuator_link'
p414
abag1
(g12
g3
Ntp415
Rp416
(lp417
g1
(g16
g3
Ntp418
Rp419
(lp420
F0.6114581986938912
aF-0.29069795247921515
aF0.34732207929480907
abag1
(g20
g3
Ntp421
Rp422
(lp423
F-0.4641581946914265
aF0.5593299765697787
aF0.23050094797687065
aF0.6469748531380571
abababag1
(g2
g3
Ntp424
Rp425
(lp426
g1
(g7
g3
Ntp427
Rp428
(lp429
I26
aF4.215108034
aS'linear_actuator_link'
p430
abag1
(g12
g3
Ntp431
Rp432
(lp433
g1
(g16
g3
Ntp434
Rp435
(lp436
F0.6215668200586132
aF-0.226762264902386
aF0.31795336778544514
abag1
(g20
g3
Ntp437
Rp438
(lp439
F-0.500542057526617
aF0.5301862367484987
aF0.3374839049679199
aF0.5953694793127117
abababag1
(g2
g3
Ntp440
Rp441
(lp442
g1
(g7
g3
Ntp443
Rp444
(lp445
I27
aF4.401755587
aS'linear_actuator_link'
p446
abag1
(g12
g3
Ntp447
Rp448
(lp449
g1
(g16
g3
Ntp450
Rp451
(lp452
F0.6208735799458294
aF-0.16470227913414703
aF0.2871550436989305
abag1
(g20
g3
Ntp453
Rp454
(lp455
F-0.5242737306789187
aF0.49478595486751065
aF0.43905879056758096
aF0.5362380932115767
abababag1
(g2
g3
Ntp456
Rp457
(lp458
g1
(g7
g3
Ntp459
Rp460
(lp461
I28
aF4.850932589
aS'linear_actuator_link'
p462
abag1
(g12
g3
Ntp463
Rp464
(lp465
g1
(g16
g3
Ntp466
Rp467
(lp468
F0.6101739643117536
aF-0.1062619819884107
aF0.2559872016660658
abag1
(g20
g3
Ntp469
Rp470
(lp471
F0.5344339159625535
aF-0.454142663868752
aF-0.533989921428908
aF-0.47221774017445867
abababa.