(lp0
ccopy_reg
_reconstructor
p1
(cgeometry_msgs.msg._PoseStamped
PoseStamped
p2
c__builtin__
object
p3
Ntp4
Rp5
(lp6
g1
(cstd_msgs.msg._Header
Header
p7
g3
Ntp8
Rp9
(lp10
I0
aF0.0
aS'right_link_base'
p11
abag1
(cgeometry_msgs.msg._Pose
Pose
p12
g3
Ntp13
Rp14
(lp15
g1
(cgeometry_msgs.msg._Point
Point
p16
g3
Ntp17
Rp18
(lp19
F-0.2394160306738204
aF0.44716399654596084
aF0.3738079644092321
abag1
(cgeometry_msgs.msg._Quaternion
Quaternion
p20
g3
Ntp21
Rp22
(lp23
F-0.4555115397326761
aF-0.48220018142465804
aF0.4766377532033594
aF0.5768957223152611
abababag1
(g2
g3
Ntp24
Rp25
(lp26
g1
(g7
g3
Ntp27
Rp28
(lp29
I1
aF0.440693194
aS'right_link_base'
p30
abag1
(g12
g3
Ntp31
Rp32
(lp33
g1
(g16
g3
Ntp34
Rp35
(lp36
F-0.23245348878664301
aF0.4821671458095451
aF0.3412263544647491
abag1
(g20
g3
Ntp37
Rp38
(lp39
F-0.4652190211804645
aF-0.4099994167115904
aF0.5686375877972588
aF0.5404840741151962
abababag1
(g2
g3
Ntp40
Rp41
(lp42
g1
(g7
g3
Ntp43
Rp44
(lp45
I2
aF0.671386389
aS'right_link_base'
p46
abag1
(g12
g3
Ntp47
Rp48
(lp49
g1
(g16
g3
Ntp50
Rp51
(lp52
F-0.2308891694507083
aF0.5111156796185286
aF0.3110690519073029
abag1
(g20
g3
Ntp53
Rp54
(lp55
F-0.463424678276922
aF-0.3487764709475547
aF0.6470829099978568
aF0.49484972311400427
abababag1
(g2
g3
Ntp56
Rp57
(lp58
g1
(g7
g3
Ntp59
Rp60
(lp61
I3
aF0.902079584
aS'right_link_base'
p62
abag1
(g12
g3
Ntp63
Rp64
(lp65
g1
(g16
g3
Ntp66
Rp67
(lp68
F-0.23037105757897391
aF0.5360462337313101
aF0.28003300218061283
abag1
(g20
g3
Ntp69
Rp70
(lp71
F-0.4513413456545071
aF-0.28344749886481274
aF0.7203637130409768
aF0.44387456113622703
abababag1
(g2
g3
Ntp72
Rp73
(lp74
g1
(g7
g3
Ntp75
Rp76
(lp77
I4
aF1.132772779
aS'right_link_base'
p78
abag1
(g12
g3
Ntp79
Rp80
(lp81
g1
(g16
g3
Ntp82
Rp83
(lp84
F-0.23134391245041513
aF0.5569397669542597
aF0.24908590330937502
abag1
(g20
g3
Ntp85
Rp86
(lp87
F-0.4282254358238524
aF-0.2158119869585755
aF0.7871593944444881
aF0.38785080912156183
abababag1
(g2
g3
Ntp88
Rp89
(lp90
g1
(g7
g3
Ntp91
Rp92
(lp93
I5
aF1.363465974
aS'right_link_base'
p94
abag1
(g12
g3
Ntp95
Rp96
(lp97
g1
(g16
g3
Ntp98
Rp99
(lp100
F-0.23414408262431713
aF0.5739354707040489
aF0.2192235449214192
abag1
(g20
g3
Ntp101
Rp102
(lp103
F-0.3936889698146874
aF-0.14784332443166476
aF0.846219166927138
aF0.32720707203907523
abababag1
(g2
g3
Ntp104
Rp105
(lp106
g1
(g7
g3
Ntp107
Rp108
(lp109
I6
aF1.594159169
aS'right_link_base'
p110
abag1
(g12
g3
Ntp111
Rp112
(lp113
g1
(g16
g3
Ntp114
Rp115
(lp116
F-0.23897051397490915
aF0.5873132676230406
aF0.19143439863697354
abag1
(g20
g3
Ntp117
Rp118
(lp119
F-0.3477326692634168
aF-0.08161585643967763
aF0.8963888003672603
aF0.26250325956204984
abababag1
(g2
g3
Ntp120
Rp121
(lp122
g1
(g7
g3
Ntp123
Rp124
(lp125
I7
aF1.824852363
aS'right_link_base'
p126
abag1
(g12
g3
Ntp127
Rp128
(lp129
g1
(g16
g3
Ntp130
Rp131
(lp132
F-0.24586315053101537
aF0.5974681889042406
aF0.1666630810192699
abag1
(g20
g3
Ntp133
Rp134
(lp135
F-0.2907638574414042
aF-0.019225789490394447
aF0.9366359438268637
aF0.1944218530819676
abababag1
(g2
g3
Ntp136
Rp137
(lp138
g1
(g7
g3
Ntp139
Rp140
(lp141
I8
aF2.055545558
aS'right_link_base'
p142
abag1
(g12
g3
Ntp143
Rp144
(lp145
g1
(g16
g3
Ntp146
Rp147
(lp148
F-0.2546904848125757
aF0.604878241214337
aF0.14577436515953635
abag1
(g20
g3
Ntp149
Rp150
(lp151
F-0.2235981075182398
aF0.03729087826707831
aF0.966073396695373
aF0.12375568233336298
abababag1
(g2
g3
Ntp152
Rp153
(lp154
g1
(g7
g3
Ntp155
Rp156
(lp157
I9
aF2.286238753
aS'right_link_base'
p158
abag1
(g12
g3
Ntp159
Rp160
(lp161
g1
(g16
g3
Ntp162
Rp163
(lp164
F-0.2651474521137446
aF0.6100678617357169
aF0.12951944830510564
abag1
(g20
g3
Ntp165
Rp166
(lp167
F-0.14744423715469585
aF0.08604005749151705
aF0.9839797352076909
aF0.051392471601671964
abababag1
(g2
g3
Ntp168
Rp169
(lp170
g1
(g7
g3
Ntp171
Rp172
(lp173
I10
aF2.516931948
aS'right_link_base'
p174
abag1
(g12
g3
Ntp175
Rp176
(lp177
g1
(g16
g3
Ntp178
Rp179
(lp180
F-0.276764189196625
aF0.6135693973703049
aF0.11850611652696885
abag1
(g20
g3
Ntp181
Rp182
(lp183
F-0.06387293411994721
aF0.1253475198323877
aF0.9898167537147925
aF-0.021703493365996588
abababag1
(g2
g3
Ntp184
Rp185
(lp186
g1
(g7
g3
Ntp187
Rp188
(lp189
I11
aF2.747625143
aS'right_link_base'
p190
abag1
(g12
g3
Ntp191
Rp192
(lp193
g1
(g16
g3
Ntp194
Rp195
(lp196
F-0.2889254427051412
aF0.6158852016355738
aF0.11317428524152545
abag1
(g20
g3
Ntp197
Rp198
(lp199
F0.02523002022110451
aF0.1538298280554645
aF0.9832432480306444
aF-0.09451214357011217
abababag1
(g2
g3
Ntp200
Rp201
(lp202
g1
(g7
g3
Ntp203
Rp204
(lp205
I12
aF2.9783183380000002
aS'right_link_base'
p206
abag1
(g12
g3
Ntp207
Rp208
(lp209
g1
(g16
g3
Ntp210
Rp211
(lp212
F-0.3008996731700395
aF0.6174529053271192
aF0.11377814468169312
abag1
(g20
g3
Ntp213
Rp214
(lp215
F0.11772431235719824
aF0.1704552124345076
aF0.9641247494345766
aF-0.16598034329897812
abababag1
(g2
g3
Ntp216
Rp217
(lp218
g1
(g7
g3
Ntp219
Rp220
(lp221
I13
aF3.209011533
aS'right_link_base'
p222
abag1
(g12
g3
Ntp223
Rp224
(lp225
g1
(g16
g3
Ntp226
Rp227
(lp228
F-0.3118762150575724
aF0.6186161861374715
aF0.12037581614878329
abag1
(g20
g3
Ntp229
Rp230
(lp231
F0.21128723456339069
aF0.174591732087281
aF0.9325389105841425
aF-0.2350459781486559
abababag1
(g2
g3
Ntp232
Rp233
(lp234
g1
(g7
g3
Ntp235
Rp236
(lp237
I14
aF3.439704727
aS'right_link_base'
p238
abag1
(g12
g3
Ntp239
Rp240
(lp241
g1
(g16
g3
Ntp242
Rp243
(lp244
F-0.3210082765809367
aF0.619602955968388
aF0.13282704693513908
abag1
(g20
g3
Ntp245
Rp246
(lp247
F0.30349468375915284
aF0.16604054447489855
aF0.8887763464686919
aF-0.3006628019529102
abababag1
(g2
g3
Ntp248
Rp249
(lp250
g1
(g7
g3
Ntp251
Rp252
(lp253
I15
aF3.6703979220000003
aS'right_link_base'
p254
abag1
(g12
g3
Ntp255
Rp256
(lp257
g1
(g16
g3
Ntp258
Rp259
(lp260
F-0.3274591412081655
aF0.6205123353066797
aF0.15079906169821794
abag1
(g20
g3
Ntp261
Rp262
(lp263
F0.39190790458058405
aF0.14505268610129587
aF0.8333368421092827
aF-0.3618254001108589
abababag1
(g2
g3
Ntp264
Rp265
(lp266
g1
(g7
g3
Ntp267
Rp268
(lp269
I16
aF3.901091117
aS'right_link_base'
p270
abag1
(g12
g3
Ntp271
Rp272
(lp273
g1
(g16
g3
Ntp274
Rp275
(lp276
F-0.3304486997930474
aF0.6213111363137753
aF0.17378027045814515
abag1
(g20
g3
Ntp277
Rp278
(lp279
F0.47416258234633024
aF0.1123284195312233
aF0.7669209512719861
aF-0.41759361365848124
abababag1
(g2
g3
Ntp280
Rp281
(lp282
g1
(g7
g3
Ntp283
Rp284
(lp285
I17
aF4.131784312
aS'right_link_base'
p286
abag1
(g12
g3
Ntp287
Rp288
(lp289
g1
(g16
g3
Ntp290
Rp291
(lp292
F-0.3292974164907169
aF0.6218398827369132
aF0.20110113347477276
abag1
(g20
g3
Ntp293
Rp294
(lp295
F0.5480567501622152
aF0.06899889999668436
aF0.6904171241489778
aF-0.46711577267604
abababag1
(g2
g3
Ntp296
Rp297
(lp298
g1
(g7
g3
Ntp299
Rp300
(lp301
I18
aF4.362477507
aS'right_link_base'
p302
abag1
(g12
g3
Ntp303
Rp304
(lp305
g1
(g16
g3
Ntp306
Rp307
(lp308
F-0.32346501462373534
aF0.6218277112521093
aF0.23196112507949534
abag1
(g20
g3
Ntp309
Rp310
(lp311
F-0.6116339762576078
aF-0.016590630770981215
aF-0.604884613843141
aF0.5096501093826659
abababag1
(g2
g3
Ntp312
Rp313
(lp314
g1
(g7
g3
Ntp315
Rp316
(lp317
I19
aF4.593170702
aS'right_link_base'
p318
abag1
(g12
g3
Ntp319
Rp320
(lp321
g1
(g16
g3
Ntp322
Rp323
(lp324
F-0.3125815449565555
aF0.6209148797075956
aF0.2654604433912188
abag1
(g20
g3
Ntp325
Rp326
(lp327
F-0.6632584440292041
aF0.04302611911696684
aF-0.5115325186404607
aF0.5445837601976747
abababag1
(g2
g3
Ntp328
Rp329
(lp330
g1
(g7
g3
Ntp331
Rp332
(lp333
I20
aF4.823863896
aS'right_link_base'
p334
abag1
(g12
g3
Ntp335
Rp336
(lp337
g1
(g16
g3
Ntp338
Rp339
(lp340
F-0.29646903735442165
aF0.6186811010043767
aF0.30063489788920456
abag1
(g20
g3
Ntp341
Rp342
(lp343
F-0.70167882348847
aF0.10770309740837844
aF-0.41169541662660064
aF0.5714488213349711
abababag1
(g2
g3
Ntp344
Rp345
(lp346
g1
(g7
g3
Ntp347
Rp348
(lp349
I21
aF5.054557091
aS'right_link_base'
p350
abag1
(g12
g3
Ntp351
Rp352
(lp353
g1
(g16
g3
Ntp354
Rp355
(lp356
F-0.27515259369130834
aF0.614677564736035
aF0.3364922839417846
abag1
(g20
g3
Ntp357
Rp358
(lp359
F-0.7260782483750668
aF0.17509161824672162
aF-0.30680613851576244
aF0.5899349928808987
abababag1
(g2
g3
Ntp360
Rp361
(lp362
g1
(g7
g3
Ntp363
Rp364
(lp365
I22
aF5.285250286
aS'right_link_base'
p366
abag1
(g12
g3
Ntp367
Rp368
(lp369
g1
(g16
g3
Ntp370
Rp371
(lp372
F-0.24886050236401314
aF0.6084603264739881
aF0.3720485284824619
abag1
(g20
g3
Ntp373
Rp374
(lp375
F-0.736108242216297
aF0.24272894319481628
aF-0.19836630116032242
aF0.5998984301035747
abababag1
(g2
g3
Ntp376
Rp377
(lp378
g1
(g7
g3
Ntp379
Rp380
(lp381
I23
aF5.515943481
aS'right_link_base'
p382
abag1
(g12
g3
Ntp383
Rp384
(lp385
g1
(g16
g3
Ntp386
Rp387
(lp388
F-0.21801368580720615
aF0.5996227456927787
aF0.4063619636217462
abag1
(g20
g3
Ntp389
Rp390
(lp391
F-0.7319050584065686
aF0.3081301698063358
aF-0.08791528594921107
aF0.6013665158873286
abababag1
(g2
g3
Ntp392
Rp393
(lp394
g1
(g7
g3
Ntp395
Rp396
(lp397
I24
aF5.746636676
aS'right_link_base'
p398
abag1
(g12
g3
Ntp399
Rp400
(lp401
g1
(g16
g3
Ntp402
Rp403
(lp404
F-0.18320547556478178
aF0.5878248310116618
aF0.438564248379208
abag1
(g20
g3
Ntp405
Rp406
(lp407
F-0.7140875893156858
aF0.3688820470973498
aF0.02300160860618807
aF0.5945383722823187
abababag1
(g2
g3
Ntp408
Rp409
(lp410
g1
(g7
g3
Ntp411
Rp412
(lp413
I25
aF5.977329871
aS'right_link_base'
p414
abag1
(g12
g3
Ntp415
Rp416
(lp417
g1
(g16
g3
Ntp418
Rp419
(lp420
F-0.1451732937612587
aF0.5728176841578425
aF0.4678867004961181
abag1
(g20
g3
Ntp421
Rp422
(lp423
F-0.683736729904547
aF0.42273502326624557
aF0.1328650837313468
aF0.5797810395387089
abababag1
(g2
g3
Ntp424
Rp425
(lp426
g1
(g7
g3
Ntp427
Rp428
(lp429
I26
aF6.208023066
aS'right_link_base'
p430
abag1
(g12
g3
Ntp431
Rp432
(lp433
g1
(g16
g3
Ntp434
Rp435
(lp436
F-0.10476426388863963
aF0.5544616878455875
aF0.4936811032262069
abag1
(g20
g3
Ntp437
Rp438
(lp439
F-0.6423568228731799
aF0.46768986560705367
aF0.24021306219776048
aF0.5576213647864519
abababag1
(g2
g3
Ntp440
Rp441
(lp442
g1
(g7
g3
Ntp443
Rp444
(lp445
I27
aF6.43871626
aS'right_link_base'
p446
abag1
(g12
g3
Ntp447
Rp448
(lp449
g1
(g16
g3
Ntp450
Rp451
(lp452
F-0.06289704926843614
aF0.5327376145324165
aF0.5154343953177765
abag1
(g20
g3
Ntp453
Rp454
(lp455
F-0.591820534878191
aF0.5020753754743144
aF0.3436704618318608
aF0.5287337567274233
abababag1
(g2
g3
Ntp456
Rp457
(lp458
g1
(g7
g3
Ntp459
Rp460
(lp461
I28
aF6.669409455
aS'right_link_base'
p462
abag1
(g12
g3
Ntp463
Rp464
(lp465
g1
(g16
g3
Ntp466
Rp467
(lp468
F-0.020522310953203754
aF0.5077503946958057
aF0.5327770132126197
abag1
(g20
g3
Ntp469
Rp470
(lp471
F0.5342991873049769
aF-0.5246140460402283
aF-0.44197679802212003
aF-0.49392407427929313
abababag1
(g2
g3
Ntp472
Rp473
(lp474
g1
(g7
g3
Ntp475
Rp476
(lp477
I29
aF7.11010265
aS'right_link_base'
p478
abag1
(g12
g3
Ntp479
Rp480
(lp481
g1
(g16
g3
Ntp482
Rp483
(lp484
F0.021415909534811678
aF0.47972582628962934
aF0.5454850094039296
abag1
(g20
g3
Ntp485
Rp486
(lp487
F-0.47218116273166666
aF0.5344729652472047
aF0.534010941798103
aF0.45411002303531534
abababa.